; Function Attrs: mustprogress nofree nounwind willreturn memory(argmem: read) uwtable
define internal fastcc signext range(i8 0, 3) i8 @nsvg__parseLineCap(ptr noundef readonly captures(none) %0) unnamed_addr #18 {
  %2 = tail call i32 @strcmp(ptr noundef nonnull dereferenceable(1) %0, ptr noundef nonnull dereferenceable(5) @.str.67) #32
  %3 = icmp eq i32 %2, 0
  br i1 %3, label %10, label %4

4:                                                ; preds = %1
  %5 = tail call i32 @strcmp(ptr noundef nonnull dereferenceable(1) %0, ptr noundef nonnull dereferenceable(6) @.str.68) #32
  %6 = icmp eq i32 %5, 0
  br i1 %6, label %10, label %7

7:                                                ; preds = %4
  %8 = tail call i32 @strcmp(ptr noundef nonnull dereferenceable(1) %0, ptr noundef nonnull dereferenceable(7) @.str.69) #32
  %9 = icmp eq i32 %8, 0
  %. = select i1 %9, i8 2, i8 0
  br label %10

10:                                               ; preds = %7, %4, %1
  %.0 = phi i8 [ 0, %1 ], [ 1, %4 ], [ %., %7 ]
  ret i8 %.0
}